target datalayout = "e-m:e-p270:32:32-p271:32:32-p272:64:64-i64:64-i128:128-f80:128-n8:16:32:64-S128"
target triple = "x86_64-pc-linux-gnu"

%struct.Gla_Man_t_ = type { ptr, ptr, ptr, ptr, ptr, ptr, ptr, i32, i32, i32, i32, i32, ptr, ptr, ptr, ptr, ptr, ptr, ptr, i32, ptr, ptr, ptr, i64, i64, i64, i64, i64 }
%struct.Gla_Obj_t_ = type { i32, i32, [4 x i32], %struct.Vec_Int_t_ }
%struct.Vec_Int_t_ = type { i32, i32, ptr }
%struct.Gia_Man_t_ = type { ptr, ptr, i32, i32, i32, i32, ptr, ptr, i32, i32, i32, ptr, ptr, %struct.Vec_Int_t_, %struct.Vec_Int_t_, i32, i32, i32, %struct.Vec_Int_t_, ptr, ptr, ptr, i32, i32, i32, i32, ptr, ptr, ptr, ptr, ptr, i32, i32, ptr, i32, ptr, ptr, ptr, ptr, ptr, ptr, ptr, ptr, ptr, ptr, ptr, ptr, ptr, ptr, ptr, ptr, ptr, ptr, %struct.Vec_Int_t_, %struct.Vec_Int_t_, ptr, ptr, ptr, ptr, ptr, ptr, ptr, ptr, ptr, ptr, ptr, ptr, ptr, ptr, ptr, ptr, ptr, ptr, ptr, ptr, ptr, i32, float, float, ptr, ptr, i32, ptr, ptr, ptr, ptr, ptr, ptr, ptr, ptr, ptr, ptr, ptr, ptr, ptr, ptr, ptr, i64, i64, ptr, ptr, i32, i32, i32, i32, i32, i32, i32, i32, i32, i32, i32, i32, ptr, ptr, ptr, ptr, ptr, ptr, ptr, ptr, i32, i32, i32, ptr, i32, i32, ptr, ptr, ptr, ptr, ptr, ptr, i32, i32, ptr, %struct.Vec_Int_t_, %struct.Vec_Int_t_, %struct.Vec_Int_t_, ptr, ptr, ptr, i32, i32, i32, i32, ptr, ptr, ptr, ptr, ptr }

@.str.15 = private unnamed_addr constant [5 x i8] c"%s =\00", align 1
@.str.16 = private unnamed_addr constant [18 x i8] c"Memory: AIG      \00", align 1
@.str.17 = private unnamed_addr constant [22 x i8] c"%10.3f MB (%6.2f %%)\0A\00", align 1
@.str.18 = private unnamed_addr constant [18 x i8] c"Memory: SAT      \00", align 1
@.str.19 = private unnamed_addr constant [18 x i8] c"Memory: Proof    \00", align 1
@.str.20 = private unnamed_addr constant [18 x i8] c"Memory: Map      \00", align 1
@.str.21 = private unnamed_addr constant [18 x i8] c"Memory: Refine   \00", align 1
@.str.22 = private unnamed_addr constant [18 x i8] c"Memory: Other    \00", align 1
@.str.23 = private unnamed_addr constant [18 x i8] c"Memory: TOTAL    \00", align 1

; Function Attrs: inlinehint nounwind uwtable
define internal i32 @Vec_IntCap(ptr noundef %0) #2 {
  %2 = alloca ptr, align 8
  store ptr %0, ptr %2, align 8, !tbaa !12
  %3 = load ptr, ptr %2, align 8, !tbaa !12
  %4 = getelementptr inbounds nuw %struct.Vec_Int_t_, ptr %3, i32 0, i32 0
  %5 = load i32, ptr %4, align 8, !tbaa !47
  ret i32 %5
}

; Function Attrs: inlinehint nounwind uwtable
define internal i32 @Gia_ManObjNum(ptr noundef %0) #2 {
  %2 = alloca ptr, align 8
  store ptr %0, ptr %2, align 8, !tbaa !51
  %3 = load ptr, ptr %2, align 8, !tbaa !51
  %4 = getelementptr inbounds nuw %struct.Gia_Man_t_, ptr %3, i32 0, i32 4
  %5 = load i32, ptr %4, align 8, !tbaa !135
  ret i32 %5
}

; Function Attrs: nounwind uwtable
define void @Gla_ManReportMemory(ptr noundef %0) #0 {
  %2 = alloca ptr, align 8
  %3 = alloca ptr, align 8
  %4 = alloca double, align 8
  %5 = alloca double, align 8
  %6 = alloca double, align 8
  %7 = alloca double, align 8
  %8 = alloca double, align 8
  %9 = alloca double, align 8
  %10 = alloca double, align 8
  store ptr %0, ptr %2, align 8, !tbaa !3
  call void @llvm.lifetime.start.p0(i64 8, ptr %3) #13
  call void @llvm.lifetime.start.p0(i64 8, ptr %4) #13
  store double 0.000000e+00, ptr %4, align 8, !tbaa !218
  call void @llvm.lifetime.start.p0(i64 8, ptr %5) #13
  %11 = load ptr, ptr %2, align 8, !tbaa !3
  %12 = getelementptr inbounds nuw %struct.Gla_Man_t_, ptr %11, i32 0, i32 1
  %13 = load ptr, ptr %12, align 8, !tbaa !41
  %14 = call i32 @Gia_ManObjNum(ptr noundef %13)
  %15 = sext i32 %14 to i64
  %16 = mul i64 %15, 12
  %17 = uitofp i64 %16 to double
  store double %17, ptr %5, align 8, !tbaa !218
  call void @llvm.lifetime.start.p0(i64 8, ptr %6) #13
  %18 = load ptr, ptr %2, align 8, !tbaa !3
  %19 = getelementptr inbounds nuw %struct.Gla_Man_t_, ptr %18, i32 0, i32 13
  %20 = load ptr, ptr %19, align 8, !tbaa !66
  %21 = call double @sat_solver2_memory(ptr noundef %20, i32 noundef 1)
  store double %21, ptr %6, align 8, !tbaa !218
  call void @llvm.lifetime.start.p0(i64 8, ptr %7) #13
  %22 = load ptr, ptr %2, align 8, !tbaa !3
  %23 = getelementptr inbounds nuw %struct.Gla_Man_t_, ptr %22, i32 0, i32 13
  %24 = load ptr, ptr %23, align 8, !tbaa !66
  %25 = call double @sat_solver2_memory_proof(ptr noundef %24)
  store double %25, ptr %7, align 8, !tbaa !218
  call void @llvm.lifetime.start.p0(i64 8, ptr %8) #13
  %26 = load ptr, ptr %2, align 8, !tbaa !3
  %27 = getelementptr inbounds nuw %struct.Gla_Man_t_, ptr %26, i32 0, i32 7
  %28 = load i32, ptr %27, align 8, !tbaa !151
  %29 = sext i32 %28 to i64
  %30 = mul i64 %29, 40
  %31 = load ptr, ptr %2, align 8, !tbaa !3
  %32 = getelementptr inbounds nuw %struct.Gla_Man_t_, ptr %31, i32 0, i32 1
  %33 = load ptr, ptr %32, align 8, !tbaa !41
  %34 = call i32 @Gia_ManObjNum(ptr noundef %33)
  %35 = sext i32 %34 to i64
  %36 = mul i64 %35, 4
  %37 = add i64 %30, %36
  %38 = uitofp i64 %37 to double
  store double %38, ptr %8, align 8, !tbaa !218
  call void @llvm.lifetime.start.p0(i64 8, ptr %9) #13
  %39 = load ptr, ptr %2, align 8, !tbaa !3
  %40 = getelementptr inbounds nuw %struct.Gla_Man_t_, ptr %39, i32 0, i32 22
  %41 = load ptr, ptr %40, align 8, !tbaa !104
  %42 = call double @Rnm_ManMemoryUsage(ptr noundef %41)
  store double %42, ptr %9, align 8, !tbaa !218
  call void @llvm.lifetime.start.p0(i64 8, ptr %10) #13
  store double 2.080000e+02, ptr %10, align 8, !tbaa !218
  %43 = load ptr, ptr %2, align 8, !tbaa !3
  %44 = getelementptr inbounds nuw %struct.Gla_Man_t_, ptr %43, i32 0, i32 5
  %45 = load ptr, ptr %44, align 8, !tbaa !49
  store ptr %45, ptr %3, align 8, !tbaa !26
  br label %46

46:                                               ; preds = %66, %1
  %47 = load ptr, ptr %3, align 8, !tbaa !26
  %48 = load ptr, ptr %2, align 8, !tbaa !3
  %49 = getelementptr inbounds nuw %struct.Gla_Man_t_, ptr %48, i32 0, i32 5
  %50 = load ptr, ptr %49, align 8, !tbaa !49
  %51 = load ptr, ptr %2, align 8, !tbaa !3
  %52 = getelementptr inbounds nuw %struct.Gla_Man_t_, ptr %51, i32 0, i32 7
  %53 = load i32, ptr %52, align 8, !tbaa !151
  %54 = sext i32 %53 to i64
  %55 = getelementptr inbounds %struct.Gla_Obj_t_, ptr %50, i64 %54
  %56 = icmp ult ptr %47, %55
  br i1 %56, label %57, label %69

57:                                               ; preds = %46
  %58 = load ptr, ptr %3, align 8, !tbaa !26
  %59 = getelementptr inbounds nuw %struct.Gla_Obj_t_, ptr %58, i32 0, i32 3
  %60 = call i32 @Vec_IntCap(ptr noundef %59)
  %61 = sext i32 %60 to i64
  %62 = mul i64 %61, 4
  %63 = uitofp i64 %62 to double
  %64 = load double, ptr %8, align 8, !tbaa !218
  %65 = fadd double %64, %63
  store double %65, ptr %8, align 8, !tbaa !218
  br label %66

66:                                               ; preds = %57
  %67 = load ptr, ptr %3, align 8, !tbaa !26
  %68 = getelementptr inbounds nuw %struct.Gla_Obj_t_, ptr %67, i32 1
  store ptr %68, ptr %3, align 8, !tbaa !26
  br label %46, !llvm.loop !219

69:                                               ; preds = %46
  %70 = load ptr, ptr %2, align 8, !tbaa !3
  %71 = getelementptr inbounds nuw %struct.Gla_Man_t_, ptr %70, i32 0, i32 15
  %72 = load ptr, ptr %71, align 8, !tbaa !143
  %73 = call i32 @Vec_IntCap(ptr noundef %72)
  %74 = sext i32 %73 to i64
  %75 = mul i64 %74, 4
  %76 = uitofp i64 %75 to double
  %77 = load double, ptr %10, align 8, !tbaa !218
  %78 = fadd double %77, %76
  store double %78, ptr %10, align 8, !tbaa !218
  %79 = load ptr, ptr %2, align 8, !tbaa !3
  %80 = getelementptr inbounds nuw %struct.Gla_Man_t_, ptr %79, i32 0, i32 14
  %81 = load ptr, ptr %80, align 8, !tbaa !142
  %82 = call i32 @Vec_IntCap(ptr noundef %81)
  %83 = sext i32 %82 to i64
  %84 = mul i64 %83, 4
  %85 = uitofp i64 %84 to double
  %86 = load double, ptr %10, align 8, !tbaa !218
  %87 = fadd double %86, %85
  store double %87, ptr %10, align 8, !tbaa !218
  %88 = load ptr, ptr %2, align 8, !tbaa !3
  %89 = getelementptr inbounds nuw %struct.Gla_Man_t_, ptr %88, i32 0, i32 3
  %90 = load ptr, ptr %89, align 8, !tbaa !16
  %91 = call i32 @Vec_IntCap(ptr noundef %90)
  %92 = sext i32 %91 to i64
  %93 = mul i64 %92, 4
  %94 = uitofp i64 %93 to double
  %95 = load double, ptr %10, align 8, !tbaa !218
  %96 = fadd double %95, %94
  store double %96, ptr %10, align 8, !tbaa !218
  %97 = load double, ptr %5, align 8, !tbaa !218
  %98 = load double, ptr %6, align 8, !tbaa !218
  %99 = fadd double %97, %98
  %100 = load double, ptr %7, align 8, !tbaa !218
  %101 = fadd double %99, %100
  %102 = load double, ptr %8, align 8, !tbaa !218
  %103 = fadd double %101, %102
  %104 = load double, ptr %9, align 8, !tbaa !218
  %105 = fadd double %103, %104
  %106 = load double, ptr %10, align 8, !tbaa !218
  %107 = fadd double %105, %106
  store double %107, ptr %4, align 8, !tbaa !218
  call void (i32, ptr, ...) @Abc_Print(i32 noundef 1, ptr noundef @.str.15, ptr noundef @.str.16)
  %108 = load double, ptr %5, align 8, !tbaa !218
  %109 = fmul double 1.000000e+00, %108
  %110 = fdiv double %109, 0x4130000000000000
  %111 = load double, ptr %4, align 8, !tbaa !218
  %112 = fcmp une double %111, 0.000000e+00
  br i1 %112, label %113, label %118

113:                                              ; preds = %69
  %114 = load double, ptr %5, align 8, !tbaa !218
  %115 = fmul double 1.000000e+02, %114
  %116 = load double, ptr %4, align 8, !tbaa !218
  %117 = fdiv double %115, %116
  br label %119

118:                                              ; preds = %69
  br label %119

119:                                              ; preds = %118, %113
  %120 = phi double [ %117, %113 ], [ 0.000000e+00, %118 ]
  call void (i32, ptr, ...) @Abc_Print(i32 noundef 1, ptr noundef @.str.17, double noundef %110, double noundef %120)
  call void (i32, ptr, ...) @Abc_Print(i32 noundef 1, ptr noundef @.str.15, ptr noundef @.str.18)
  %121 = load double, ptr %6, align 8, !tbaa !218
  %122 = fmul double 1.000000e+00, %121
  %123 = fdiv double %122, 0x4130000000000000
  %124 = load double, ptr %4, align 8, !tbaa !218
  %125 = fcmp une double %124, 0.000000e+00
  br i1 %125, label %126, label %131

126:                                              ; preds = %119
  %127 = load double, ptr %6, align 8, !tbaa !218
  %128 = fmul double 1.000000e+02, %127
  %129 = load double, ptr %4, align 8, !tbaa !218
  %130 = fdiv double %128, %129
  br label %132

131:                                              ; preds = %119
  br label %132

132:                                              ; preds = %131, %126
  %133 = phi double [ %130, %126 ], [ 0.000000e+00, %131 ]
  call void (i32, ptr, ...) @Abc_Print(i32 noundef 1, ptr noundef @.str.17, double noundef %123, double noundef %133)
  call void (i32, ptr, ...) @Abc_Print(i32 noundef 1, ptr noundef @.str.15, ptr noundef @.str.19)
  %134 = load double, ptr %7, align 8, !tbaa !218
  %135 = fmul double 1.000000e+00, %134
  %136 = fdiv double %135, 0x4130000000000000
  %137 = load double, ptr %4, align 8, !tbaa !218
  %138 = fcmp une double %137, 0.000000e+00
  br i1 %138, label %139, label %144

139:                                              ; preds = %132
  %140 = load double, ptr %7, align 8, !tbaa !218
  %141 = fmul double 1.000000e+02, %140
  %142 = load double, ptr %4, align 8, !tbaa !218
  %143 = fdiv double %141, %142
  br label %145

144:                                              ; preds = %132
  br label %145

145:                                              ; preds = %144, %139
  %146 = phi double [ %143, %139 ], [ 0.000000e+00, %144 ]
  call void (i32, ptr, ...) @Abc_Print(i32 noundef 1, ptr noundef @.str.17, double noundef %136, double noundef %146)
  call void (i32, ptr, ...) @Abc_Print(i32 noundef 1, ptr noundef @.str.15, ptr noundef @.str.20)
  %147 = load double, ptr %8, align 8, !tbaa !218
  %148 = fmul double 1.000000e+00, %147
  %149 = fdiv double %148, 0x4130000000000000
  %150 = load double, ptr %4, align 8, !tbaa !218
  %151 = fcmp une double %150, 0.000000e+00
  br i1 %151, label %152, label %157

152:                                              ; preds = %145
  %153 = load double, ptr %8, align 8, !tbaa !218
  %154 = fmul double 1.000000e+02, %153
  %155 = load double, ptr %4, align 8, !tbaa !218
  %156 = fdiv double %154, %155
  br label %158

157:                                              ; preds = %145
  br label %158

158:                                              ; preds = %157, %152
  %159 = phi double [ %156, %152 ], [ 0.000000e+00, %157 ]
  call void (i32, ptr, ...) @Abc_Print(i32 noundef 1, ptr noundef @.str.17, double noundef %149, double noundef %159)
  call void (i32, ptr, ...) @Abc_Print(i32 noundef 1, ptr noundef @.str.15, ptr noundef @.str.21)
  %160 = load double, ptr %9, align 8, !tbaa !218
  %161 = fmul double 1.000000e+00, %160
  %162 = fdiv double %161, 0x4130000000000000
  %163 = load double, ptr %4, align 8, !tbaa !218
  %164 = fcmp une double %163, 0.000000e+00
  br i1 %164, label %165, label %170

165:                                              ; preds = %158
  %166 = load double, ptr %9, align 8, !tbaa !218
  %167 = fmul double 1.000000e+02, %166
  %168 = load double, ptr %4, align 8, !tbaa !218
  %169 = fdiv double %167, %168
  br label %171

170:                                              ; preds = %158
  br label %171

171:                                              ; preds = %170, %165
  %172 = phi double [ %169, %165 ], [ 0.000000e+00, %170 ]
  call void (i32, ptr, ...) @Abc_Print(i32 noundef 1, ptr noundef @.str.17, double noundef %162, double noundef %172)
  call void (i32, ptr, ...) @Abc_Print(i32 noundef 1, ptr noundef @.str.15, ptr noundef @.str.22)
  %173 = load double, ptr %10, align 8, !tbaa !218
  %174 = fmul double 1.000000e+00, %173
  %175 = fdiv double %174, 0x4130000000000000
  %176 = load double, ptr %4, align 8, !tbaa !218
  %177 = fcmp une double %176, 0.000000e+00
  br i1 %177, label %178, label %183

178:                                              ; preds = %171
  %179 = load double, ptr %10, align 8, !tbaa !218
  %180 = fmul double 1.000000e+02, %179
  %181 = load double, ptr %4, align 8, !tbaa !218
  %182 = fdiv double %180, %181
  br label %184

183:                                              ; preds = %171
  br label %184

184:                                              ; preds = %183, %178
  %185 = phi double [ %182, %178 ], [ 0.000000e+00, %183 ]
  call void (i32, ptr, ...) @Abc_Print(i32 noundef 1, ptr noundef @.str.17, double noundef %175, double noundef %185)
  call void (i32, ptr, ...) @Abc_Print(i32 noundef 1, ptr noundef @.str.15, ptr noundef @.str.23)
  %186 = load double, ptr %4, align 8, !tbaa !218
  %187 = fmul double 1.000000e+00, %186
  %188 = fdiv double %187, 0x4130000000000000
  %189 = load double, ptr %4, align 8, !tbaa !218
  %190 = fcmp une double %189, 0.000000e+00
  br i1 %190, label %191, label %196

191:                                              ; preds = %184
  %192 = load double, ptr %4, align 8, !tbaa !218
  %193 = fmul double 1.000000e+02, %192
  %194 = load double, ptr %4, align 8, !tbaa !218
  %195 = fdiv double %193, %194
  br label %197

196:                                              ; preds = %184
  br label %197

197:                                              ; preds = %196, %191
  %198 = phi double [ %195, %191 ], [ 0.000000e+00, %196 ]
  call void (i32, ptr, ...) @Abc_Print(i32 noundef 1, ptr noundef @.str.17, double noundef %188, double noundef %198)
  call void @llvm.lifetime.end.p0(i64 8, ptr %10) #13
  call void @llvm.lifetime.end.p0(i64 8, ptr %9) #13
  call void @llvm.lifetime.end.p0(i64 8, ptr %8) #13
  call void @llvm.lifetime.end.p0(i64 8, ptr %7) #13
  call void @llvm.lifetime.end.p0(i64 8, ptr %6) #13
  call void @llvm.lifetime.end.p0(i64 8, ptr %5) #13
  call void @llvm.lifetime.end.p0(i64 8, ptr %4) #13
  call void @llvm.lifetime.end.p0(i64 8, ptr %3) #13
  ret void
}