; Function Attrs: nounwind uwtable
define void @Gla_ManReportMemory(ptr noundef readonly captures(none) %0) local_unnamed_addr #0 {
  %2 = getelementptr inbounds nuw i8, ptr %0, i64 8
  %3 = load ptr, ptr %2, align 8, !tbaa !36
  %4 = getelementptr i8, ptr %3, i64 24
  %.val54 = load i32, ptr %4, align 8, !tbaa !138
  %5 = getelementptr inbounds nuw i8, ptr %0, i64 88
  %6 = load ptr, ptr %5, align 8, !tbaa !53
  %7 = tail call double @sat_solver2_memory(ptr noundef %6, i32 noundef 1) #29
  %8 = load ptr, ptr %5, align 8, !tbaa !53
  %9 = tail call double @sat_solver2_memory_proof(ptr noundef %8) #29
  %10 = getelementptr inbounds nuw i8, ptr %0, i64 56
  %11 = load i32, ptr %10, align 8, !tbaa !153
  %12 = sext i32 %11 to i64
  %13 = mul nsw i64 %12, 40
  %14 = load ptr, ptr %2, align 8, !tbaa !36
  %15 = getelementptr i8, ptr %14, i64 24
  %.val = load i32, ptr %15, align 8, !tbaa !138
  %16 = sext i32 %.val to i64
  %17 = shl nsw i64 %16, 2
  %18 = add nsw i64 %17, %13
  %19 = uitofp i64 %18 to double
  %20 = getelementptr inbounds nuw i8, ptr %0, i64 160
  %21 = load ptr, ptr %20, align 8, !tbaa !110
  %22 = tail call double @Rnm_ManMemoryUsage(ptr noundef %21) #29
  %23 = getelementptr inbounds nuw i8, ptr %0, i64 40
  %24 = load ptr, ptr %23, align 8, !tbaa !23
  %25 = load i32, ptr %10, align 8, !tbaa !153
  %26 = sext i32 %25 to i64
  %27 = getelementptr inbounds %struct.Gla_Obj_t_, ptr %24, i64 %26
  %28 = icmp sgt i32 %25, 0
  br i1 %28, label %.lr.ph, label %._crit_edge

.lr.ph:                                           ; preds = %1, %.lr.ph
  %.060 = phi ptr [ %34, %.lr.ph ], [ %24, %1 ]
  %.05359 = phi double [ %33, %.lr.ph ], [ %19, %1 ]
  %29 = getelementptr inbounds nuw i8, ptr %.060, i64 24
  %.val55 = load i32, ptr %29, align 8, !tbaa !10
  %30 = sext i32 %.val55 to i64
  %31 = shl nsw i64 %30, 2
  %32 = uitofp i64 %31 to double
  %33 = fadd double %.05359, %32
  %34 = getelementptr inbounds nuw i8, ptr %.060, i64 40
  %35 = icmp ult ptr %34, %27
  br i1 %35, label %.lr.ph, label %._crit_edge, !llvm.loop !217

._crit_edge:                                      ; preds = %.lr.ph, %1
  %.053.lcssa = phi double [ %19, %1 ], [ %33, %.lr.ph ]
  %36 = sext i32 %.val54 to i64
  %37 = mul nsw i64 %36, 12
  %38 = uitofp i64 %37 to double
  %39 = getelementptr inbounds nuw i8, ptr %0, i64 104
  %40 = load ptr, ptr %39, align 8, !tbaa !146
  %.val56 = load i32, ptr %40, align 8, !tbaa !10
  %41 = sext i32 %.val56 to i64
  %42 = shl nsw i64 %41, 2
  %43 = uitofp i64 %42 to double
  %44 = fadd double %43, 2.080000e+02
  %45 = getelementptr inbounds nuw i8, ptr %0, i64 96
  %46 = load ptr, ptr %45, align 8, !tbaa !145
  %.val57 = load i32, ptr %46, align 8, !tbaa !10
  %47 = sext i32 %.val57 to i64
  %48 = shl nsw i64 %47, 2
  %49 = uitofp i64 %48 to double
  %50 = fadd double %44, %49
  %51 = getelementptr inbounds nuw i8, ptr %0, i64 24
  %52 = load ptr, ptr %51, align 8, !tbaa !12
  %.val58 = load i32, ptr %52, align 8, !tbaa !10
  %53 = sext i32 %.val58 to i64
  %54 = shl nsw i64 %53, 2
  %55 = uitofp i64 %54 to double
  %56 = fadd double %50, %55
  %57 = fadd double %7, %38
  %58 = fadd double %57, %9
  %59 = fadd double %58, %.053.lcssa
  %60 = fadd double %22, %59
  %61 = fadd double %60, %56
  tail call void (i32, ptr, ...) @Abc_Print(i32 poison, ptr noundef nonnull @.str.15, ptr noundef nonnull @.str.16)
  %62 = fmul double %38, 0x3EB0000000000000
  %63 = fcmp une double %61, 0.000000e+00
  %64 = fmul double %38, 1.000000e+02
  %65 = fdiv double %64, %61
  %66 = select i1 %63, double %65, double 0.000000e+00
  tail call void (i32, ptr, ...) @Abc_Print(i32 poison, ptr noundef nonnull @.str.17, double noundef %62, double noundef %66)
  tail call void (i32, ptr, ...) @Abc_Print(i32 poison, ptr noundef nonnull @.str.15, ptr noundef nonnull @.str.18)
  %67 = fmul double %7, 0x3EB0000000000000
  %68 = fmul double %7, 1.000000e+02
  %69 = fdiv double %68, %61
  %70 = select i1 %63, double %69, double 0.000000e+00
  tail call void (i32, ptr, ...) @Abc_Print(i32 poison, ptr noundef nonnull @.str.17, double noundef %67, double noundef %70)
  tail call void (i32, ptr, ...) @Abc_Print(i32 poison, ptr noundef nonnull @.str.15, ptr noundef nonnull @.str.19)
  %71 = fmul double %9, 0x3EB0000000000000
  %72 = fmul double %9, 1.000000e+02
  %73 = fdiv double %72, %61
  %74 = select i1 %63, double %73, double 0.000000e+00
  tail call void (i32, ptr, ...) @Abc_Print(i32 poison, ptr noundef nonnull @.str.17, double noundef %71, double noundef %74)
  tail call void (i32, ptr, ...) @Abc_Print(i32 poison, ptr noundef nonnull @.str.15, ptr noundef nonnull @.str.20)
  %75 = fmul double %.053.lcssa, 0x3EB0000000000000
  %76 = fmul double %.053.lcssa, 1.000000e+02
  %77 = fdiv double %76, %61
  %78 = select i1 %63, double %77, double 0.000000e+00
  tail call void (i32, ptr, ...) @Abc_Print(i32 poison, ptr noundef nonnull @.str.17, double noundef %75, double noundef %78)
  tail call void (i32, ptr, ...) @Abc_Print(i32 poison, ptr noundef nonnull @.str.15, ptr noundef nonnull @.str.21)
  %79 = fmul double %22, 0x3EB0000000000000
  %80 = fmul double %22, 1.000000e+02
  %81 = fdiv double %80, %61
  %82 = select i1 %63, double %81, double 0.000000e+00
  tail call void (i32, ptr, ...) @Abc_Print(i32 poison, ptr noundef nonnull @.str.17, double noundef %79, double noundef %82)
  tail call void (i32, ptr, ...) @Abc_Print(i32 poison, ptr noundef nonnull @.str.15, ptr noundef nonnull @.str.22)
  %83 = fmul double %56, 0x3EB0000000000000
  %84 = fmul double %56, 1.000000e+02
  %85 = fdiv double %84, %61
  %86 = select i1 %63, double %85, double 0.000000e+00
  tail call void (i32, ptr, ...) @Abc_Print(i32 poison, ptr noundef nonnull @.str.17, double noundef %83, double noundef %86)
  tail call void (i32, ptr, ...) @Abc_Print(i32 poison, ptr noundef nonnull @.str.15, ptr noundef nonnull @.str.23)
  %87 = fmul double %61, 0x3EB0000000000000
  %88 = fmul double %61, 1.000000e+02
  %89 = fdiv double %88, %61
  %90 = select i1 %63, double %89, double 0.000000e+00
  tail call void (i32, ptr, ...) @Abc_Print(i32 poison, ptr noundef nonnull @.str.17, double noundef %87, double noundef %90)
  ret void
}